target datalayout = "e-m:e-p270:32:32-p271:32:32-p272:64:64-i64:64-i128:128-f80:128-n8:16:32:64-S128"
target triple = "x86_64-pc-linux-gnu"

; Function Attrs: nounwind uwtable
define i32 @minimalInitialFlip(ptr noundef %0, i32 noundef %1, ptr noundef %2) #0 {
  %4 = alloca i32, align 4
  %5 = alloca ptr, align 8
  %6 = alloca i32, align 4
  %7 = alloca ptr, align 8
  %8 = alloca i64, align 8
  %9 = alloca i32, align 4
  store ptr %0, ptr %5, align 8, !tbaa !3
  store i32 %1, ptr %6, align 4, !tbaa !8
  store ptr %2, ptr %7, align 8, !tbaa !32
  call void @llvm.lifetime.start.p0(i64 8, ptr %8) #7
  store i64 1, ptr %8, align 8, !tbaa !10
  %10 = load ptr, ptr %5, align 8, !tbaa !3
  %11 = load i32, ptr %6, align 4, !tbaa !8
  %12 = call i32 @Kit_TruthWordNum_64bit(i32 noundef %11)
  %13 = sub nsw i32 %12, 1
  %14 = sext i32 %13 to i64
  %15 = getelementptr inbounds i64, ptr %10, i64 %14
  %16 = load i64, ptr %15, align 8, !tbaa !10
  %17 = lshr i64 %16, 63
  %18 = load i64, ptr %8, align 8, !tbaa !10
  %19 = and i64 %17, %18
  %20 = icmp ne i64 %19, 0
  br i1 %20, label %21, label %29

21:                                               ; preds = %3
  %22 = load ptr, ptr %5, align 8, !tbaa !3
  %23 = load i32, ptr %6, align 4, !tbaa !8
  call void @Kit_TruthNot_64bit(ptr noundef %22, i32 noundef %23)
  %24 = load i32, ptr %6, align 4, !tbaa !8
  %25 = shl i32 1, %24
  %26 = load ptr, ptr %7, align 8, !tbaa !32
  %27 = load i32, ptr %26, align 4, !tbaa !8
  %28 = xor i32 %27, %25
  store i32 %28, ptr %26, align 4, !tbaa !8
  store i32 1, ptr %4, align 4
  store i32 1, ptr %9, align 4
  br label %30

29:                                               ; preds = %3
  store i32 0, ptr %4, align 4
  store i32 1, ptr %9, align 4
  br label %30

30:                                               ; preds = %29, %21
  call void @llvm.lifetime.end.p0(i64 8, ptr %8) #7
  %31 = load i32, ptr %4, align 4
  ret i32 %31
}

; Function Attrs: nounwind uwtable
define void @luckyCanonicizer(ptr noundef %0, ptr noundef %1, ptr noundef %2, i32 noundef %3, ptr noundef %4, ptr noundef %5, ptr noundef %6) #0 {
  %8 = alloca ptr, align 8
  %9 = alloca ptr, align 8
  %10 = alloca ptr, align 8
  %11 = alloca i32, align 4
  %12 = alloca ptr, align 8
  %13 = alloca ptr, align 8
  %14 = alloca ptr, align 8
  %15 = alloca i32, align 4
  store ptr %0, ptr %8, align 8, !tbaa !3
  store ptr %1, ptr %9, align 8, !tbaa !3
  store ptr %2, ptr %10, align 8, !tbaa !3
  store i32 %3, ptr %11, align 4, !tbaa !8
  store ptr %4, ptr %12, align 8, !tbaa !35
  store ptr %5, ptr %13, align 8, !tbaa !35
  store ptr %6, ptr %14, align 8, !tbaa !32
  call void @llvm.lifetime.start.p0(i64 4, ptr %15) #7
  store i32 1, ptr %15, align 4, !tbaa !8
  br label %16

16:                                               ; preds = %19, %7
  %17 = load i32, ptr %15, align 4, !tbaa !8
  %18 = icmp sgt i32 %17, 0
  br i1 %18, label %19, label %44

19:                                               ; preds = %16
  store i32 0, ptr %15, align 4, !tbaa !8
  %20 = load ptr, ptr %8, align 8, !tbaa !3
  %21 = load i32, ptr %11, align 4, !tbaa !8
  %22 = load ptr, ptr %14, align 8, !tbaa !32
  %23 = call i32 @minimalInitialFlip(ptr noundef %20, i32 noundef %21, ptr noundef %22)
  %24 = load i32, ptr %15, align 4, !tbaa !8
  %25 = add nsw i32 %24, %23
  store i32 %25, ptr %15, align 4, !tbaa !8
  %26 = load ptr, ptr %8, align 8, !tbaa !3
  %27 = load ptr, ptr %9, align 8, !tbaa !3
  %28 = load ptr, ptr %10, align 8, !tbaa !3
  %29 = load i32, ptr %11, align 4, !tbaa !8
  %30 = load ptr, ptr %14, align 8, !tbaa !32
  %31 = call i32 @minimalFlip(ptr noundef %26, ptr noundef %27, ptr noundef %28, i32 noundef %29, ptr noundef %30)
  %32 = load i32, ptr %15, align 4, !tbaa !8
  %33 = add nsw i32 %32, %31
  store i32 %33, ptr %15, align 4, !tbaa !8
  %34 = load ptr, ptr %8, align 8, !tbaa !3
  %35 = load ptr, ptr %9, align 8, !tbaa !3
  %36 = load ptr, ptr %10, align 8, !tbaa !3
  %37 = load i32, ptr %11, align 4, !tbaa !8
  %38 = load ptr, ptr %12, align 8, !tbaa !35
  %39 = load ptr, ptr %13, align 8, !tbaa !35
  %40 = load ptr, ptr %14, align 8, !tbaa !32
  %41 = call i32 @minimalSwap(ptr noundef %34, ptr noundef %35, ptr noundef %36, i32 noundef %37, ptr noundef %38, ptr noundef %39, ptr noundef %40)
  %42 = load i32, ptr %15, align 4, !tbaa !8
  %43 = add nsw i32 %42, %41
  store i32 %43, ptr %15, align 4, !tbaa !8
  br label %16, !llvm.loop !39

44:                                               ; preds = %16
  call void @llvm.lifetime.end.p0(i64 4, ptr %15) #7
  ret void
}