; Function Attrs: nounwind uwtable
define void @luckyCanonicizer(ptr noundef %0, ptr noundef captures(none) %1, ptr noundef captures(none) %2, i32 noundef %3, ptr noundef captures(none) %4, ptr noundef captures(none) %5, ptr noundef captures(none) %6) local_unnamed_addr #0 {
  %invariant.gep = getelementptr i8, ptr %0, i64 -8
  %8 = shl nuw i32 1, %3
  br label %9

9:                                                ; preds = %7, %minimalInitialFlip.exit
  %10 = tail call i32 @Kit_TruthWordNum_64bit(i32 noundef %3) #19
  %11 = sext i32 %10 to i64
  %gep = getelementptr i64, ptr %invariant.gep, i64 %11
  %12 = load i64, ptr %gep, align 8, !tbaa !3
  %.not.i = icmp sgt i64 %12, -1
  br i1 %.not.i, label %minimalInitialFlip.exit, label %13

13:                                               ; preds = %9
  tail call void @Kit_TruthNot_64bit(ptr noundef nonnull %0, i32 noundef %3) #19
  %14 = load i32, ptr %6, align 4, !tbaa !29
  %15 = xor i32 %14, %8
  store i32 %15, ptr %6, align 4, !tbaa !29
  br label %minimalInitialFlip.exit

minimalInitialFlip.exit:                          ; preds = %9, %13
  %.0.i = phi i32 [ 1, %13 ], [ 0, %9 ]
  %16 = tail call i32 @minimalFlip(ptr noundef nonnull %0, ptr noundef %1, ptr noundef %2, i32 noundef %3, ptr noundef %6)
  %17 = add nuw nsw i32 %16, %.0.i
  %18 = tail call i32 @minimalSwap(ptr noundef nonnull %0, ptr noundef %1, ptr noundef %2, i32 noundef %3, ptr noundef %4, ptr noundef %5, ptr noundef %6)
  %19 = or i32 %17, %18
  %.not = icmp eq i32 %19, 0
  br i1 %.not, label %20, label %9, !llvm.loop !33

20:                                               ; preds = %minimalInitialFlip.exit
  ret void
}